; Function Attrs: mustprogress nofree norecurse nosync nounwind willreturn memory(argmem: readwrite) uwtable
define internal range(i32 0, 9) i32 @decoder_set_fb_fn(ptr nocapture noundef %0, ptr noundef %1, ptr noundef %2, ptr noundef %3) #1 {
  %5 = icmp eq ptr %1, null
  %6 = icmp eq ptr %2, null
  %or.cond = or i1 %5, %6
  br i1 %or.cond, label %15, label %7

7:                                                ; preds = %4
  %8 = getelementptr inbounds nuw i8, ptr %0, i64 27120
  %9 = load ptr, ptr %8, align 8
  %10 = icmp eq ptr %9, null
  br i1 %10, label %11, label %15

11:                                               ; preds = %7
  %12 = getelementptr inbounds nuw i8, ptr %0, i64 27424
  store ptr %1, ptr %12, align 8
  %13 = getelementptr inbounds nuw i8, ptr %0, i64 27432
  store ptr %2, ptr %13, align 8
  %14 = getelementptr inbounds nuw i8, ptr %0, i64 27416
  store ptr %3, ptr %14, align 8
  br label %15

15:                                               ; preds = %7, %4, %11
  %.0 = phi i32 [ 0, %11 ], [ 8, %4 ], [ 1, %7 ]
  ret i32 %.0
}